(ideluge.core.torrentmanager
TorrentManagerState
p1
(dp2
S'torrents'
p3
(lp4
(ideluge.core.torrentmanager
TorrentState
p5
(dp6
S'max_download_speed'
p7
F-1
sS'move_completed_path'
p8
S'/home/maximcoppieters/Downloads'
p9
sS'paused'
p10
I00
sS'max_upload_slots'
p11
I-1
sS'prioritize_first_last'
p12
I00
sS'max_connections'
p13
I-1
sS'compact'
p14
I00
sS'queue'
p15
I0
sS'file_priorities'
p16
(lp17
I4
asS'filename'
p18
S'2689472af8edad26283c45b41c9ea00752c52e31'
p19
sS'max_upload_speed'
p20
F-1
sS'save_path'
p21
S'/home/maximcoppieters/Downloads'
p22
sS'time_added'
p23
F1526904643.3460851
sS'total_uploaded'
p24
I0
sS'torrent_id'
p25
S'2689472af8edad26283c45b41c9ea00752c52e31'
p26
sS'auto_managed'
p27
I01
sS'stop_at_ratio'
p28
I00
sS'move_completed'
p29
I00
sS'trackers'
p30
(lp31
(dp32
S'send_stats'
p33
I01
sS'fails'
p34
I0
sS'verified'
p35
I00
sS'scrape_incomplete'
p36
I-1
sS'min_announce'
p37
NsS'scrape_downloaded'
p38
I-1
sS'url'
p39
S'udp://tracker.leechers-paradise.org:6969'
p40
sS'last_error'
p41
(dp42
S'category'
p43
S'system'
p44
sS'value'
p45
I0
ssS'fail_limit'
p46
I0
sS'next_announce'
p47
NsS'complete_sent'
p48
I00
sS'source'
p49
I4
sS'trackerid'
p50
S''
sS'start_sent'
p51
I00
sS'tier'
p52
I0
sS'scrape_complete'
p53
I-1
sS'message'
p54
S''
sS'updating'
p55
I00
sa(dp56
S'send_stats'
p57
I01
sS'fails'
p58
I0
sS'verified'
p59
I00
sS'scrape_incomplete'
p60
I-1
sS'min_announce'
p61
NsS'scrape_downloaded'
p62
I-1
sS'url'
p63
S'udp://zer0day.ch:1337'
p64
sS'last_error'
p65
(dp66
S'category'
p67
S'system'
p68
sS'value'
p69
I0
ssS'fail_limit'
p70
I0
sS'next_announce'
p71
NsS'complete_sent'
p72
I00
sS'source'
p73
I4
sS'trackerid'
p74
S''
sS'start_sent'
p75
I00
sS'tier'
p76
I1
sS'scrape_complete'
p77
I-1
sS'message'
p78
S''
sS'updating'
p79
I00
sa(dp80
S'send_stats'
p81
I01
sS'fails'
p82
I0
sS'verified'
p83
I00
sS'scrape_incomplete'
p84
I-1
sS'min_announce'
p85
NsS'scrape_downloaded'
p86
I-1
sS'url'
p87
S'udp://open.demonii.com:1337'
p88
sS'last_error'
p89
(dp90
S'category'
p91
S'system'
p92
sS'value'
p93
I0
ssS'fail_limit'
p94
I0
sS'next_announce'
p95
NsS'complete_sent'
p96
I00
sS'source'
p97
I4
sS'trackerid'
p98
S''
sS'start_sent'
p99
I00
sS'tier'
p100
I2
sS'scrape_complete'
p101
I-1
sS'message'
p102
S''
sS'updating'
p103
I00
sa(dp104
S'send_stats'
p105
I01
sS'fails'
p106
I0
sS'verified'
p107
I00
sS'scrape_incomplete'
p108
I-1
sS'min_announce'
p109
NsS'scrape_downloaded'
p110
I-1
sS'url'
p111
S'udp://tracker.coppersurfer.tk:6969'
p112
sS'last_error'
p113
(dp114
S'category'
p115
S'system'
p116
sS'value'
p117
I0
ssS'fail_limit'
p118
I0
sS'next_announce'
p119
NsS'complete_sent'
p120
I00
sS'source'
p121
I4
sS'trackerid'
p122
S''
sS'start_sent'
p123
I00
sS'tier'
p124
I3
sS'scrape_complete'
p125
I-1
sS'message'
p126
S''
sS'updating'
p127
I00
sa(dp128
S'send_stats'
p129
I01
sS'fails'
p130
I0
sS'verified'
p131
I00
sS'scrape_incomplete'
p132
I-1
sS'min_announce'
p133
NsS'scrape_downloaded'
p134
I-1
sS'url'
p135
S'udp://exodus.desync.com:6969'
p136
sS'last_error'
p137
(dp138
S'category'
p139
S'system'
p140
sS'value'
p141
I0
ssS'fail_limit'
p142
I0
sS'next_announce'
p143
NsS'complete_sent'
p144
I00
sS'source'
p145
I4
sS'trackerid'
p146
S''
sS'start_sent'
p147
I00
sS'tier'
p148
I4
sS'scrape_complete'
p149
I-1
sS'message'
p150
S''
sS'updating'
p151
I00
sasS'magnet'
p152
NsS'remove_at_ratio'
p153
I00
sS'stop_ratio'
p154
F2
sS'is_finished'
p155
I01
sba(ideluge.core.torrentmanager
TorrentState
p156
(dp157
g7
F-1
sg8
S'/home/maximcoppieters/Downloads'
p158
sg10
I01
sg11
I-1
sg12
I00
sg13
I-1
sg14
I00
sg15
I1
sg16
(lp159
I4
asg18
S'8398184310c5fd9ba318464a2155b09262511be3'
p160
sg20
F-1
sg21
S'/home/maximcoppieters/Downloads'
p161
sg23
F1526904494.0964341
sg24
I0
sg25
S'8398184310c5fd9ba318464a2155b09262511be3'
p162
sg27
I01
sg28
I00
sg29
I00
sg30
(lp163
(dp164
S'send_stats'
p165
I01
sS'fails'
p166
I0
sS'verified'
p167
I00
sS'scrape_incomplete'
p168
I-1
sS'min_announce'
p169
NsS'scrape_downloaded'
p170
I-1
sS'url'
p171
S'udp://tracker.leechers-paradise.org:6969'
p172
sS'last_error'
p173
(dp174
S'category'
p175
S'system'
p176
sS'value'
p177
I0
ssS'fail_limit'
p178
I0
sS'next_announce'
p179
NsS'complete_sent'
p180
I00
sS'source'
p181
I4
sS'trackerid'
p182
S''
sS'start_sent'
p183
I00
sS'tier'
p184
I0
sS'scrape_complete'
p185
I-1
sS'message'
p186
S''
sS'updating'
p187
I00
sa(dp188
S'send_stats'
p189
I01
sS'fails'
p190
I0
sS'verified'
p191
I00
sS'scrape_incomplete'
p192
I-1
sS'min_announce'
p193
NsS'scrape_downloaded'
p194
I-1
sS'url'
p195
S'udp://zer0day.ch:1337'
p196
sS'last_error'
p197
(dp198
S'category'
p199
S'system'
p200
sS'value'
p201
I0
ssS'fail_limit'
p202
I0
sS'next_announce'
p203
NsS'complete_sent'
p204
I00
sS'source'
p205
I4
sS'trackerid'
p206
S''
sS'start_sent'
p207
I00
sS'tier'
p208
I1
sS'scrape_complete'
p209
I-1
sS'message'
p210
S''
sS'updating'
p211
I00
sa(dp212
S'send_stats'
p213
I01
sS'fails'
p214
I0
sS'verified'
p215
I00
sS'scrape_incomplete'
p216
I-1
sS'min_announce'
p217
NsS'scrape_downloaded'
p218
I-1
sS'url'
p219
S'udp://open.demonii.com:1337'
p220
sS'last_error'
p221
(dp222
S'category'
p223
S'system'
p224
sS'value'
p225
I0
ssS'fail_limit'
p226
I0
sS'next_announce'
p227
NsS'complete_sent'
p228
I00
sS'source'
p229
I4
sS'trackerid'
p230
S''
sS'start_sent'
p231
I00
sS'tier'
p232
I2
sS'scrape_complete'
p233
I-1
sS'message'
p234
S''
sS'updating'
p235
I00
sa(dp236
S'send_stats'
p237
I01
sS'fails'
p238
I0
sS'verified'
p239
I00
sS'scrape_incomplete'
p240
I-1
sS'min_announce'
p241
NsS'scrape_downloaded'
p242
I-1
sS'url'
p243
S'udp://tracker.coppersurfer.tk:6969'
p244
sS'last_error'
p245
(dp246
S'category'
p247
S'system'
p248
sS'value'
p249
I0
ssS'fail_limit'
p250
I0
sS'next_announce'
p251
NsS'complete_sent'
p252
I00
sS'source'
p253
I4
sS'trackerid'
p254
S''
sS'start_sent'
p255
I00
sS'tier'
p256
I3
sS'scrape_complete'
p257
I-1
sS'message'
p258
S''
sS'updating'
p259
I00
sa(dp260
S'send_stats'
p261
I01
sS'fails'
p262
I0
sS'verified'
p263
I00
sS'scrape_incomplete'
p264
I-1
sS'min_announce'
p265
NsS'scrape_downloaded'
p266
I-1
sS'url'
p267
S'udp://exodus.desync.com:6969'
p268
sS'last_error'
p269
(dp270
S'category'
p271
S'system'
p272
sS'value'
p273
I0
ssS'fail_limit'
p274
I0
sS'next_announce'
p275
NsS'complete_sent'
p276
I00
sS'source'
p277
I4
sS'trackerid'
p278
S''
sS'start_sent'
p279
I00
sS'tier'
p280
I4
sS'scrape_complete'
p281
I-1
sS'message'
p282
S''
sS'updating'
p283
I00
sasg152
Nsg153
I00
sg154
F2
sg155
I01
sba(ideluge.core.torrentmanager
TorrentState
p284
(dp285
g7
F-1
sg8
S'/home/maximcoppieters/Downloads'
p286
sg10
I01
sg11
I-1
sg12
I00
sg13
I-1
sg14
I00
sg15
I-1
sg16
(lp287
I1
asg18
S'c730f19386e30e06531c7b02ed17b300.torrent'
p288
sg20
F-1
sg21
S'/home/maximcoppieters/Downloads'
p289
sg23
F1536868843.9814069
sg24
I0
sg25
S'd51b75e5f4ec89f67420f69978d465e974565958'
p290
sg27
I01
sg28
I00
sg29
I00
sg30
(lp291
(dp292
S'send_stats'
p293
I01
sS'fails'
p294
I0
sS'verified'
p295
I00
sS'scrape_incomplete'
p296
I-1
sS'min_announce'
p297
NsS'source'
p298
I1
sS'url'
p299
S'http://lgtracker.org/announce'
p300
sS'last_error'
p301
(dp302
S'category'
p303
S'system'
p304
sS'value'
p305
I0
ssS'fail_limit'
p306
I0
sS'next_announce'
p307
NsS'complete_sent'
p308
I00
sS'scrape_downloaded'
p309
I-1
sS'trackerid'
p310
S''
sS'start_sent'
p311
I00
sS'tier'
p312
I0
sS'scrape_complete'
p313
I-1
sS'message'
p314
S''
sS'updating'
p315
I00
sasg152
Nsg153
I00
sg154
F2
sg155
I01
sbasb.